(dp1
S'flipH'
p2
I00
sS'multicast'
p3
I00
sS'flipV'
p4
I00
sS'autoexposure'
p5
I00
sS'height'
p6
F48
sS'width'
p7
F2592
sS'trigger'
p8
I00
sS'streamer'
p9
I01
sS'fps'
p10
F200
sS'gain'
p11
F0
sS'white_balance'
p12
I01
sS'blacklevel'
p13
F10
sS'quality'
p14
F95
sS'gamma'
p15
F0.57999999999999996
sS'exposure'
p16
F3.04
s.