(dp1
S'saturation_blue'
p2
F200
sS'RG_level'
p3
F3
sS'BG_level'
p4
F3
sS'flipV'
p5
I00
sS'trigger'
p6
I01
sS'flipH'
p7
I00
sS'autoexposure'
p8
I00
sS'height'
p9
F96
sS'width'
p10
F2592
sS'multicast'
p11
I00
sS'gain'
p12
F1
sS'fps'
p13
F314
sS'saturation_red'
p14
F200
sS'blacklevel'
p15
F10
sS'quality'
p16
F90
sS'photofinish'
p17
I01
sS'gamma'
p18
F0.54000000000000004
sS'exposure'
p19
F18.670000000000002
s.