(dp1
S'saturation_blue'
p2
F200
sS'RG_level'
p3
F0.89080810546875
sS'BG_level'
p4
F2.4517059326171875
sS'flipV'
p5
I00
sS'trigger'
p6
I01
sS'flipH'
p7
I00
sS'autoexposure'
p8
I00
sS'height'
p9
F128
sS'width'
p10
F2592
sS'multicast'
p11
I00
sS'gain'
p12
F0
sS'fps'
p13
F490
sS'saturation_red'
p14
F200
sS'blacklevel'
p15
F10
sS'quality'
p16
F80
sS'photofinish'
p17
I00
sS'gamma'
p18
F0.54000000000000004
sS'exposure'
p19
F99
s.