(dp1
S'saturation_blue'
p2
F200
sS'RG_level'
p3
F1.5866546630859375
sS'BG_level'
p4
F1.6309051513671875
sS'flipV'
p5
I00
sS'trigger'
p6
I01
sS'flipH'
p7
I00
sS'autoexposure'
p8
I00
sS'height'
p9
F96
sS'width'
p10
F2592
sS'multicast'
p11
I00
sS'gain'
p12
F1
sS'fps'
p13
F212
sS'saturation_red'
p14
F200
sS'blacklevel'
p15
F10
sS'quality'
p16
F95
sS'photofinish'
p17
I01
sS'gamma'
p18
F0.5
sS'exposure'
p19
F0.38
s.