(dp1
S'saturation_blue'
p2
F200
sS'RG_level'
p3
F1.749267578125
sS'BG_level'
p4
F1.493896484375
sS'flipV'
p5
I00
sS'trigger'
p6
I00
sS'flipH'
p7
I01
sS'autoexposure'
p8
I00
sS'height'
p9
F128
sS'width'
p10
F2592
sS'multicast'
p11
I00
sS'gain'
p12
F4
sS'fps'
p13
F490
sS'saturation_red'
p14
F200
sS'blacklevel'
p15
F10
sS'quality'
p16
F100
sS'photofinish'
p17
I01
sS'gamma'
p18
F0.46999999999999997
sS'exposure'
p19
F1.9399999999999999
s.