(dp1
S'saturation_blue'
p2
F200
sS'RG_level'
p3
F1.651947021484375
sS'BG_level'
p4
F1.600799560546875
sS'flipV'
p5
I00
sS'trigger'
p6
I01
sS'flipH'
p7
I01
sS'autoexposure'
p8
I00
sS'height'
p9
F48
sS'width'
p10
F2592
sS'multicast'
p11
I00
sS'gain'
p12
F1
sS'fps'
p13
F69
sS'saturation_red'
p14
F200
sS'blacklevel'
p15
F10
sS'quality'
p16
F93
sS'photofinish'
p17
I00
sS'gamma'
p18
F0.55000000000000004
sS'exposure'
p19
F4.2000000000000002
s.